target datalayout = "e-m:e-p270:32:32-p271:32:32-p272:64:64-i64:64-i128:128-f80:128-n8:16:32:64-S128"
target triple = "x86_64-pc-linux-gnu"

%class.anon.36 = type { i8 }

@.str.2 = private unnamed_addr constant [9 x i8] c"rewriter\00", align 1
@.str.73 = private unnamed_addr constant [5 x i8] c"true\00", align 1
@.str.82 = private unnamed_addr constant [6 x i8] c"false\00", align 1
@.str.104 = private unnamed_addr constant [3 x i8] c"10\00", align 1
@.str.555 = private unnamed_addr constant [5 x i8] c"flat\00", align 1
@.str.620 = private unnamed_addr constant [4 x i8] c"som\00", align 1
@.str.621 = private unnamed_addr constant [41 x i8] c"put polynomials in sum-of-monomials form\00", align 1
@.str.622 = private unnamed_addr constant [11 x i8] c"som_blowup\00", align 1
@.str.623 = private unnamed_addr constant [98 x i8] c"maximum increase of monomials generated when putting a polynomial in sum-of-monomials normal form\00", align 1
@.str.624 = private unnamed_addr constant [10 x i8] c"hoist_mul\00", align 1
@.str.625 = private unnamed_addr constant [74 x i8] c"hoist multiplication over summation to minimize number of multiplications\00", align 1
@.str.626 = private unnamed_addr constant [10 x i8] c"hoist_ite\00", align 1
@.str.627 = private unnamed_addr constant [44 x i8] c"hoist shared summands under ite expressions\00", align 1
@.str.628 = private unnamed_addr constant [69 x i8] c"create nary applications for and,or,+,*,bvadd,bvmul,bvand,bvor,bvxor\00", align 1

; Function Attrs: mustprogress uwtable
define linkonce_odr hidden void @_ZN20poly_rewriter_params20collect_param_descrsER12param_descrs(ptr noundef nonnull align 8 dereferenceable(8) %0) #4 comdat align 2 {
  %2 = alloca ptr, align 8
  store ptr %0, ptr %2, align 8, !tbaa !7
  %3 = load ptr, ptr %2, align 8, !tbaa !7
  call void @_ZN12param_descrs6insertEPKc12cmd_arg_kindS1_S1_S1_(ptr noundef nonnull align 8 dereferenceable(8) %3, ptr noundef @.str.620, i32 noundef 1, ptr noundef @.str.621, ptr noundef @.str.82, ptr noundef @.str.2)
  %4 = load ptr, ptr %2, align 8, !tbaa !7
  call void @_ZN12param_descrs6insertEPKc12cmd_arg_kindS1_S1_S1_(ptr noundef nonnull align 8 dereferenceable(8) %4, ptr noundef @.str.622, i32 noundef 0, ptr noundef @.str.623, ptr noundef @.str.104, ptr noundef @.str.2)
  %5 = load ptr, ptr %2, align 8, !tbaa !7
  call void @_ZN12param_descrs6insertEPKc12cmd_arg_kindS1_S1_S1_(ptr noundef nonnull align 8 dereferenceable(8) %5, ptr noundef @.str.624, i32 noundef 1, ptr noundef @.str.625, ptr noundef @.str.82, ptr noundef @.str.2)
  %6 = load ptr, ptr %2, align 8, !tbaa !7
  call void @_ZN12param_descrs6insertEPKc12cmd_arg_kindS1_S1_S1_(ptr noundef nonnull align 8 dereferenceable(8) %6, ptr noundef @.str.626, i32 noundef 1, ptr noundef @.str.627, ptr noundef @.str.82, ptr noundef @.str.2)
  %7 = load ptr, ptr %2, align 8, !tbaa !7
  call void @_ZN12param_descrs6insertEPKc12cmd_arg_kindS1_S1_S1_(ptr noundef nonnull align 8 dereferenceable(8) %7, ptr noundef @.str.555, i32 noundef 1, ptr noundef @.str.628, ptr noundef @.str.73, ptr noundef @.str.2)
  ret void
}

; Function Attrs: inlinehint mustprogress uwtable
define internal noundef ptr @"_ZZ24gparams_register_modulesvENK4$_19clEv"(ptr noundef nonnull align 1 dereferenceable(1) %0) #8 align 2 {
  %2 = alloca ptr, align 8
  %3 = alloca ptr, align 8
  store ptr %0, ptr %2, align 8, !tbaa !3
  call void @llvm.lifetime.start.p0(i64 8, ptr %3) #3
  %4 = call noalias noundef ptr @_ZN6memory8allocateEm(i64 noundef 8)
  call void @_ZN12param_descrsC1Ev(ptr noundef nonnull align 8 dereferenceable(8) %4)
  store ptr %4, ptr %3, align 8, !tbaa !7
  %5 = load ptr, ptr %3, align 8, !tbaa !7
  call void @_ZN20poly_rewriter_params20collect_param_descrsER12param_descrs(ptr noundef nonnull align 8 dereferenceable(8) %5)
  %6 = load ptr, ptr %3, align 8, !tbaa !7
  call void @llvm.lifetime.end.p0(i64 8, ptr %3) #3
  ret ptr %6
}

; Function Attrs: inlinehint mustprogress uwtable
define internal noundef ptr @"_ZZ24gparams_register_modulesvEN4$_198__invokeEv"() #8 align 2 {
  %1 = alloca %class.anon.36, align 1
  %2 = call noundef ptr @"_ZZ24gparams_register_modulesvENK4$_19clEv"(ptr noundef nonnull align 1 dereferenceable(1) %1)
  ret ptr %2
}