; Function Attrs: inlinehint mustprogress uwtable
define internal noundef ptr @"_ZZ24gparams_register_modulesvEN4$_198__invokeEv"() #5 align 2 {
  %1 = tail call noalias noundef ptr @_ZN6memory8allocateEm(i64 noundef 8)
  tail call void @_ZN12param_descrsC1Ev(ptr noundef nonnull align 8 dereferenceable(8) %1)
  tail call void @_ZN12param_descrs6insertEPKc12cmd_arg_kindS1_S1_S1_(ptr noundef nonnull align 8 dereferenceable(8) %1, ptr noundef nonnull @.str.620, i32 noundef 1, ptr noundef nonnull @.str.621, ptr noundef nonnull @.str.82, ptr noundef nonnull @.str.2)
  tail call void @_ZN12param_descrs6insertEPKc12cmd_arg_kindS1_S1_S1_(ptr noundef nonnull align 8 dereferenceable(8) %1, ptr noundef nonnull @.str.622, i32 noundef 0, ptr noundef nonnull @.str.623, ptr noundef nonnull @.str.104, ptr noundef nonnull @.str.2)
  tail call void @_ZN12param_descrs6insertEPKc12cmd_arg_kindS1_S1_S1_(ptr noundef nonnull align 8 dereferenceable(8) %1, ptr noundef nonnull @.str.624, i32 noundef 1, ptr noundef nonnull @.str.625, ptr noundef nonnull @.str.82, ptr noundef nonnull @.str.2)
  tail call void @_ZN12param_descrs6insertEPKc12cmd_arg_kindS1_S1_S1_(ptr noundef nonnull align 8 dereferenceable(8) %1, ptr noundef nonnull @.str.626, i32 noundef 1, ptr noundef nonnull @.str.627, ptr noundef nonnull @.str.82, ptr noundef nonnull @.str.2)
  tail call void @_ZN12param_descrs6insertEPKc12cmd_arg_kindS1_S1_S1_(ptr noundef nonnull align 8 dereferenceable(8) %1, ptr noundef nonnull @.str.555, i32 noundef 1, ptr noundef nonnull @.str.628, ptr noundef nonnull @.str.73, ptr noundef nonnull @.str.2)
  ret ptr %1
}